; Function Attrs: mustprogress uwtable
define void @_ZNK32pxrInternal_v0_24__pxrReserved__7UsdPrim18CreateRelationshipERKNS_7TfTokenEb(ptr dead_on_unwind noalias nonnull writable sret(%"class.pxrInternal_v0_24__pxrReserved__::UsdRelationship") align 8 %0, ptr noundef nonnull align 8 dereferenceable(32) %1, ptr noundef nonnull align 8 dereferenceable(8) %2, i1 noundef zeroext %3) local_unnamed_addr #0 align 2 personality ptr @__gxx_personality_v0 {
  %5 = getelementptr inbounds nuw i8, ptr %1, i64 8
  %6 = getelementptr inbounds nuw i8, ptr %1, i64 16
  tail call void @_ZN32pxrInternal_v0_24__pxrReserved__9UsdObjectC2ENS_10UsdObjTypeERKNS_18Usd_PrimDataHandleERKNS_7SdfPathERKNS_7TfTokenE(ptr noundef nonnull align 8 dereferenceable(32) %0, i32 noundef 4, ptr noundef nonnull align 8 dereferenceable(8) %5, ptr noundef nonnull align 4 dereferenceable(8) %6, ptr noundef nonnull align 8 dereferenceable(8) %2)
  %7 = invoke noundef zeroext i1 @_ZNK32pxrInternal_v0_24__pxrReserved__15UsdRelationship7_CreateEb(ptr noundef nonnull align 8 dereferenceable(32) %0, i1 noundef zeroext %3)
          to label %10 unwind label %8

8:                                                ; preds = %4
  %9 = landingpad { ptr, i32 }
          cleanup
  tail call void @_ZN32pxrInternal_v0_24__pxrReserved__15UsdRelationshipD2Ev(ptr noundef nonnull align 8 dereferenceable(32) %0) #18
  resume { ptr, i32 } %9

10:                                               ; preds = %4
  ret void
}